target datalayout = "e-m:e-p270:32:32-p271:32:32-p272:64:64-i64:64-i128:128-f80:128-n8:16:32:64-S128"
target triple = "x86_64-pc-linux-gnu"

%struct.AVProbeData = type { ptr, ptr, i32, ptr }

@.str.2 = private unnamed_addr constant [3 x i8] c"//\00", align 1
@.str.3 = private unnamed_addr constant [39 x i8] c"%*d:%*d:%*d:%*d , %*d:%*d:%*d:%*d , %c\00", align 1
@.str.4 = private unnamed_addr constant [3 x i8] c"\0D\0A\00", align 1

; Function Attrs: alwaysinline nounwind uwtable
define internal i32 @ff_subtitles_next_line(ptr noundef %0) #4 {
  %2 = alloca ptr, align 8
  %3 = alloca i32, align 4
  store ptr %0, ptr %2, align 8, !tbaa !13
  call void @llvm.lifetime.start.p0(i64 4, ptr %3) #6
  %4 = load ptr, ptr %2, align 8, !tbaa !13
  %5 = call i64 @strcspn(ptr noundef %4, ptr noundef @.str.4) #7
  %6 = trunc i64 %5 to i32
  store i32 %6, ptr %3, align 4, !tbaa !50
  %7 = load i32, ptr %3, align 4, !tbaa !50
  %8 = load ptr, ptr %2, align 8, !tbaa !13
  %9 = sext i32 %7 to i64
  %10 = getelementptr inbounds i8, ptr %8, i64 %9
  store ptr %10, ptr %2, align 8, !tbaa !13
  br label %11

11:                                               ; preds = %16, %1
  %12 = load ptr, ptr %2, align 8, !tbaa !13
  %13 = load i8, ptr %12, align 1, !tbaa !14
  %14 = sext i8 %13 to i32
  %15 = icmp eq i32 %14, 13
  br i1 %15, label %16, label %21

16:                                               ; preds = %11
  %17 = load ptr, ptr %2, align 8, !tbaa !13
  %18 = getelementptr inbounds nuw i8, ptr %17, i32 1
  store ptr %18, ptr %2, align 8, !tbaa !13
  %19 = load i32, ptr %3, align 4, !tbaa !50
  %20 = add nsw i32 %19, 1
  store i32 %20, ptr %3, align 4, !tbaa !50
  br label %11, !llvm.loop !57

21:                                               ; preds = %11
  %22 = load ptr, ptr %2, align 8, !tbaa !13
  %23 = load i8, ptr %22, align 1, !tbaa !14
  %24 = sext i8 %23 to i32
  %25 = icmp eq i32 %24, 10
  br i1 %25, label %26, label %29

26:                                               ; preds = %21
  %27 = load i32, ptr %3, align 4, !tbaa !50
  %28 = add nsw i32 %27, 1
  store i32 %28, ptr %3, align 4, !tbaa !50
  br label %29

29:                                               ; preds = %26, %21
  %30 = load i32, ptr %3, align 4, !tbaa !50
  call void @llvm.lifetime.end.p0(i64 4, ptr %3) #6
  ret i32 %30
}

; Function Attrs: nounwind uwtable
define internal i32 @stl_probe(ptr noundef %0) #0 {
  %2 = alloca i32, align 4
  %3 = alloca ptr, align 8
  %4 = alloca i8, align 1
  %5 = alloca ptr, align 8
  %6 = alloca i32, align 4
  store ptr %0, ptr %3, align 8, !tbaa !4
  call void @llvm.lifetime.start.p0(i64 1, ptr %4) #6
  call void @llvm.lifetime.start.p0(i64 8, ptr %5) #6
  %7 = load ptr, ptr %3, align 8, !tbaa !4
  %8 = getelementptr inbounds nuw %struct.AVProbeData, ptr %7, i32 0, i32 1
  %9 = load ptr, ptr %8, align 8, !tbaa !9
  store ptr %9, ptr %5, align 8, !tbaa !13
  %10 = load ptr, ptr %5, align 8, !tbaa !13
  %11 = getelementptr inbounds i8, ptr %10, i64 0
  %12 = load i8, ptr %11, align 1, !tbaa !14
  %13 = zext i8 %12 to i32
  %14 = shl i32 %13, 16
  %15 = load ptr, ptr %5, align 8, !tbaa !13
  %16 = getelementptr inbounds i8, ptr %15, i64 1
  %17 = load i8, ptr %16, align 1, !tbaa !14
  %18 = zext i8 %17 to i32
  %19 = shl i32 %18, 8
  %20 = or i32 %14, %19
  %21 = load ptr, ptr %5, align 8, !tbaa !13
  %22 = getelementptr inbounds i8, ptr %21, i64 2
  %23 = load i8, ptr %22, align 1, !tbaa !14
  %24 = zext i8 %23 to i32
  %25 = or i32 %20, %24
  %26 = icmp eq i32 %25, 15711167
  br i1 %26, label %27, label %30

27:                                               ; preds = %1
  %28 = load ptr, ptr %5, align 8, !tbaa !13
  %29 = getelementptr inbounds i8, ptr %28, i64 3
  store ptr %29, ptr %5, align 8, !tbaa !13
  br label %30

30:                                               ; preds = %27, %1
  br label %31

31:                                               ; preds = %53, %30
  %32 = load ptr, ptr %5, align 8, !tbaa !13
  %33 = load i8, ptr %32, align 1, !tbaa !14
  %34 = zext i8 %33 to i32
  %35 = icmp eq i32 %34, 13
  br i1 %35, label %51, label %36

36:                                               ; preds = %31
  %37 = load ptr, ptr %5, align 8, !tbaa !13
  %38 = load i8, ptr %37, align 1, !tbaa !14
  %39 = zext i8 %38 to i32
  %40 = icmp eq i32 %39, 10
  br i1 %40, label %51, label %41

41:                                               ; preds = %36
  %42 = load ptr, ptr %5, align 8, !tbaa !13
  %43 = load i8, ptr %42, align 1, !tbaa !14
  %44 = zext i8 %43 to i32
  %45 = icmp eq i32 %44, 36
  br i1 %45, label %51, label %46

46:                                               ; preds = %41
  %47 = load ptr, ptr %5, align 8, !tbaa !13
  %48 = call i32 @strncmp(ptr noundef %47, ptr noundef @.str.2, i64 noundef 2) #7
  %49 = icmp ne i32 %48, 0
  %50 = xor i1 %49, true
  br label %51

51:                                               ; preds = %46, %41, %36, %31
  %52 = phi i1 [ true, %41 ], [ true, %36 ], [ true, %31 ], [ %50, %46 ]
  br i1 %52, label %53, label %59

53:                                               ; preds = %51
  %54 = load ptr, ptr %5, align 8, !tbaa !13
  %55 = call i32 @ff_subtitles_next_line(ptr noundef %54)
  %56 = load ptr, ptr %5, align 8, !tbaa !13
  %57 = sext i32 %55 to i64
  %58 = getelementptr inbounds i8, ptr %56, i64 %57
  store ptr %58, ptr %5, align 8, !tbaa !13
  br label %31, !llvm.loop !15

59:                                               ; preds = %51
  %60 = load ptr, ptr %5, align 8, !tbaa !13
  %61 = call i32 (ptr, ptr, ...) @__isoc99_sscanf(ptr noundef %60, ptr noundef @.str.3, ptr noundef %4) #6
  %62 = icmp eq i32 %61, 1
  br i1 %62, label %63, label %64

63:                                               ; preds = %59
  store i32 100, ptr %2, align 4
  store i32 1, ptr %6, align 4
  br label %65

64:                                               ; preds = %59
  store i32 0, ptr %2, align 4
  store i32 1, ptr %6, align 4
  br label %65

65:                                               ; preds = %64, %63
  call void @llvm.lifetime.end.p0(i64 8, ptr %5) #6
  call void @llvm.lifetime.end.p0(i64 1, ptr %4) #6
  %66 = load i32, ptr %2, align 4
  ret i32 %66
}