; Function Attrs: nofree nounwind uwtable
define internal noundef range(i32 0, 101) i32 @stl_probe(ptr noundef readonly captures(none) %0) #0 {
  %2 = alloca i8, align 1
  call void @llvm.lifetime.start.p0(i64 1, ptr nonnull %2) #6
  %3 = getelementptr inbounds nuw i8, ptr %0, i64 8
  %4 = load ptr, ptr %3, align 8, !tbaa !4
  %5 = load i8, ptr %4, align 1, !tbaa !11
  %6 = zext i8 %5 to i32
  %7 = shl nuw nsw i32 %6, 16
  %8 = getelementptr inbounds nuw i8, ptr %4, i64 1
  %9 = load i8, ptr %8, align 1, !tbaa !11
  %10 = zext i8 %9 to i32
  %11 = shl nuw nsw i32 %10, 8
  %12 = or disjoint i32 %11, %7
  %13 = getelementptr inbounds nuw i8, ptr %4, i64 2
  %14 = load i8, ptr %13, align 1, !tbaa !11
  %15 = zext i8 %14 to i32
  %16 = or disjoint i32 %12, %15
  %17 = icmp eq i32 %16, 15711167
  %spec.select.idx = select i1 %17, i64 3, i64 0
  %spec.select = getelementptr inbounds nuw i8, ptr %4, i64 %spec.select.idx
  br label %18

18:                                               ; preds = %ff_subtitles_next_line.exit, %1
  %.1 = phi ptr [ %spec.select, %1 ], [ %35, %ff_subtitles_next_line.exit ]
  %19 = load i8, ptr %.1, align 1, !tbaa !11
  switch i8 %19, label %.tail.thread [
    i8 13, label %.critedge
    i8 10, label %.critedge
    i8 36, label %.critedge
    i8 47, label %.tail
  ]

.tail:                                            ; preds = %18
  %20 = getelementptr inbounds nuw i8, ptr %.1, i64 1
  %21 = load i8, ptr %20, align 1
  %22 = icmp eq i8 %21, 47
  br i1 %22, label %.critedge, label %.tail.thread

.critedge:                                        ; preds = %18, %18, %18, %.tail
  %23 = tail call i64 @strcspn(ptr noundef nonnull %.1, ptr noundef nonnull @.str.4) #7
  %24 = trunc i64 %23 to i32
  %sext.i = shl i64 %23, 32
  %25 = ashr exact i64 %sext.i, 32
  %26 = getelementptr inbounds i8, ptr %.1, i64 %25
  br label %27

27:                                               ; preds = %29, %.critedge
  %.08.i = phi ptr [ %26, %.critedge ], [ %30, %29 ]
  %.0.i = phi i32 [ %24, %.critedge ], [ %31, %29 ]
  %28 = load i8, ptr %.08.i, align 1, !tbaa !11
  switch i8 %28, label %ff_subtitles_next_line.exit [
    i8 13, label %29
    i8 10, label %32
  ]

29:                                               ; preds = %27
  %30 = getelementptr inbounds nuw i8, ptr %.08.i, i64 1
  %31 = add nsw i32 %.0.i, 1
  br label %27, !llvm.loop !12

32:                                               ; preds = %27
  %33 = add nsw i32 %.0.i, 1
  br label %ff_subtitles_next_line.exit

ff_subtitles_next_line.exit:                      ; preds = %27, %32
  %.1.i = phi i32 [ %33, %32 ], [ %.0.i, %27 ]
  %34 = sext i32 %.1.i to i64
  %35 = getelementptr inbounds i8, ptr %.1, i64 %34
  br label %18, !llvm.loop !14

.tail.thread:                                     ; preds = %18, %.tail
  %36 = call i32 (ptr, ptr, ...) @__isoc99_sscanf(ptr noundef nonnull %.1, ptr noundef nonnull @.str.3, ptr noundef nonnull %2) #6
  %37 = icmp eq i32 %36, 1
  %. = select i1 %37, i32 100, i32 0
  call void @llvm.lifetime.end.p0(i64 1, ptr nonnull %2) #6
  ret i32 %.
}